target datalayout = "e-m:e-p270:32:32-p271:32:32-p272:64:64-i64:64-i128:128-f80:128-n8:16:32:64-S128"
target triple = "x86_64-pc-linux-gnu"

@.str.30 = private unnamed_addr constant [18 x i8] c"TRUEVISION-XFILE.\00", align 1

; Function Attrs: mustprogress uwtable
define noundef i32 @_ZN7mitsuba6Bitmap18detect_file_formatEPNS_6StreamE(ptr noundef %0) #0 align 2 {
  %2 = alloca ptr, align 8
  %3 = alloca i32, align 4
  %4 = alloca i64, align 8
  %5 = alloca [8 x i8], align 1
  %6 = alloca [18 x i8], align 16
  store ptr %0, ptr %2, align 8
  store i32 8, ptr %3, align 4
  %7 = load ptr, ptr %2, align 8
  %8 = load ptr, ptr %7, align 8
  %9 = getelementptr inbounds ptr, ptr %8, i64 15
  %10 = load ptr, ptr %9, align 8
  %11 = call noundef i64 %10(ptr noundef nonnull align 8 dereferenceable(16) %7)
  store i64 %11, ptr %4, align 8
  %12 = load ptr, ptr %2, align 8
  %13 = getelementptr inbounds [8 x i8], ptr %5, i64 0, i64 0
  %14 = load ptr, ptr %12, align 8
  %15 = getelementptr inbounds ptr, ptr %14, i64 11
  %16 = load ptr, ptr %15, align 8
  call void %16(ptr noundef nonnull align 8 dereferenceable(16) %12, ptr noundef %13, i64 noundef 8)
  %17 = getelementptr inbounds [8 x i8], ptr %5, i64 0, i64 0
  %18 = load i8, ptr %17, align 1
  %19 = zext i8 %18 to i32
  %20 = icmp eq i32 %19, 66
  br i1 %20, label %21, label %27

21:                                               ; preds = %1
  %22 = getelementptr inbounds [8 x i8], ptr %5, i64 0, i64 1
  %23 = load i8, ptr %22, align 1
  %24 = zext i8 %23 to i32
  %25 = icmp eq i32 %24, 77
  br i1 %25, label %26, label %27

26:                                               ; preds = %21
  store i32 7, ptr %3, align 4
  br label %117

27:                                               ; preds = %21, %1
  %28 = getelementptr inbounds [8 x i8], ptr %5, i64 0, i64 0
  %29 = load i8, ptr %28, align 1
  %30 = zext i8 %29 to i32
  %31 = icmp eq i32 %30, 35
  br i1 %31, label %32, label %38

32:                                               ; preds = %27
  %33 = getelementptr inbounds [8 x i8], ptr %5, i64 0, i64 1
  %34 = load i8, ptr %33, align 1
  %35 = zext i8 %34 to i32
  %36 = icmp eq i32 %35, 63
  br i1 %36, label %37, label %38

37:                                               ; preds = %32
  store i32 2, ptr %3, align 4
  br label %116

38:                                               ; preds = %32, %27
  %39 = getelementptr inbounds [8 x i8], ptr %5, i64 0, i64 0
  %40 = load i8, ptr %39, align 1
  %41 = zext i8 %40 to i32
  %42 = icmp eq i32 %41, 80
  br i1 %42, label %43, label %54

43:                                               ; preds = %38
  %44 = getelementptr inbounds [8 x i8], ptr %5, i64 0, i64 1
  %45 = load i8, ptr %44, align 1
  %46 = zext i8 %45 to i32
  %47 = icmp eq i32 %46, 70
  br i1 %47, label %53, label %48

48:                                               ; preds = %43
  %49 = getelementptr inbounds [8 x i8], ptr %5, i64 0, i64 1
  %50 = load i8, ptr %49, align 1
  %51 = zext i8 %50 to i32
  %52 = icmp eq i32 %51, 102
  br i1 %52, label %53, label %54

53:                                               ; preds = %48, %43
  store i32 3, ptr %3, align 4
  br label %115

54:                                               ; preds = %48, %38
  %55 = getelementptr inbounds [8 x i8], ptr %5, i64 0, i64 0
  %56 = load i8, ptr %55, align 1
  %57 = zext i8 %56 to i32
  %58 = icmp eq i32 %57, 80
  br i1 %58, label %59, label %65

59:                                               ; preds = %54
  %60 = getelementptr inbounds [8 x i8], ptr %5, i64 0, i64 1
  %61 = load i8, ptr %60, align 1
  %62 = zext i8 %61 to i32
  %63 = icmp eq i32 %62, 54
  br i1 %63, label %64, label %65

64:                                               ; preds = %59
  store i32 4, ptr %3, align 4
  br label %114

65:                                               ; preds = %59, %54
  %66 = getelementptr inbounds [8 x i8], ptr %5, i64 0, i64 0
  %67 = load i8, ptr %66, align 1
  %68 = zext i8 %67 to i32
  %69 = icmp eq i32 %68, 255
  br i1 %69, label %70, label %76

70:                                               ; preds = %65
  %71 = getelementptr inbounds [8 x i8], ptr %5, i64 0, i64 1
  %72 = load i8, ptr %71, align 1
  %73 = zext i8 %72 to i32
  %74 = icmp eq i32 %73, 216
  br i1 %74, label %75, label %76

75:                                               ; preds = %70
  store i32 5, ptr %3, align 4
  br label %113

76:                                               ; preds = %70, %65
  %77 = getelementptr inbounds [8 x i8], ptr %5, i64 0, i64 0
  %78 = call i32 @png_sig_cmp(ptr noundef %77, i64 noundef 0, i64 noundef 8)
  %79 = icmp eq i32 %78, 0
  br i1 %79, label %80, label %81

80:                                               ; preds = %76
  store i32 0, ptr %3, align 4
  br label %112

81:                                               ; preds = %76
  %82 = getelementptr inbounds [8 x i8], ptr %5, i64 0, i64 0
  %83 = call noundef zeroext i1 @_ZN7Imf_2_510isImfMagicEPKc(ptr noundef %82)
  br i1 %83, label %84, label %85

84:                                               ; preds = %81
  store i32 1, ptr %3, align 4
  br label %111

85:                                               ; preds = %81
  %86 = load ptr, ptr %2, align 8
  %87 = load ptr, ptr %2, align 8
  %88 = load ptr, ptr %87, align 8
  %89 = getelementptr inbounds ptr, ptr %88, i64 16
  %90 = load ptr, ptr %89, align 8
  %91 = call noundef i64 %90(ptr noundef nonnull align 8 dereferenceable(16) %87)
  %92 = sub i64 %91, 18
  %93 = load ptr, ptr %86, align 8
  %94 = getelementptr inbounds ptr, ptr %93, i64 13
  %95 = load ptr, ptr %94, align 8
  call void %95(ptr noundef nonnull align 8 dereferenceable(16) %86, i64 noundef %92)
  %96 = load ptr, ptr %2, align 8
  %97 = getelementptr inbounds [18 x i8], ptr %6, i64 0, i64 0
  %98 = load ptr, ptr %96, align 8
  %99 = getelementptr inbounds ptr, ptr %98, i64 11
  %100 = load ptr, ptr %99, align 8
  call void %100(ptr noundef nonnull align 8 dereferenceable(16) %96, ptr noundef %97, i64 noundef 18)
  %101 = getelementptr inbounds [18 x i8], ptr %6, i64 0, i64 17
  %102 = load i8, ptr %101, align 1
  %103 = sext i8 %102 to i32
  %104 = icmp eq i32 %103, 0
  br i1 %104, label %105, label %110

105:                                              ; preds = %85
  %106 = getelementptr inbounds [18 x i8], ptr %6, i64 0, i64 0
  %107 = call i32 @strncmp(ptr noundef %106, ptr noundef @.str.30, i64 noundef 17) #10
  %108 = icmp eq i32 %107, 0
  br i1 %108, label %109, label %110

109:                                              ; preds = %105
  store i32 6, ptr %3, align 4
  br label %110

110:                                              ; preds = %109, %105, %85
  br label %111

111:                                              ; preds = %110, %84
  br label %112

112:                                              ; preds = %111, %80
  br label %113

113:                                              ; preds = %112, %75
  br label %114

114:                                              ; preds = %113, %64
  br label %115

115:                                              ; preds = %114, %53
  br label %116

116:                                              ; preds = %115, %37
  br label %117

117:                                              ; preds = %116, %26
  %118 = load ptr, ptr %2, align 8
  %119 = load i64, ptr %4, align 8
  %120 = load ptr, ptr %118, align 8
  %121 = getelementptr inbounds ptr, ptr %120, i64 13
  %122 = load ptr, ptr %121, align 8
  call void %122(ptr noundef nonnull align 8 dereferenceable(16) %118, i64 noundef %119)
  %123 = load i32, ptr %3, align 4
  ret i32 %123
}