; Function Attrs: mustprogress uwtable
define noundef i32 @_ZN7mitsuba6Bitmap18detect_file_formatEPNS_6StreamE(ptr noundef %0) local_unnamed_addr #0 align 2 {
  %2 = alloca [8 x i8], align 1
  %3 = alloca [18 x i8], align 16
  %4 = load ptr, ptr %0, align 8
  %5 = getelementptr inbounds i8, ptr %4, i64 120
  %6 = load ptr, ptr %5, align 8
  %7 = tail call noundef i64 %6(ptr noundef nonnull align 8 dereferenceable(16) %0)
  %8 = load ptr, ptr %0, align 8
  %9 = getelementptr inbounds i8, ptr %8, i64 88
  %10 = load ptr, ptr %9, align 8
  call void %10(ptr noundef nonnull align 8 dereferenceable(16) %0, ptr noundef nonnull %2, i64 noundef 8)
  %11 = load i8, ptr %2, align 1
  %12 = icmp eq i8 %11, 66
  %13 = getelementptr inbounds i8, ptr %2, i64 1
  %14 = load i8, ptr %13, align 1
  %15 = icmp eq i8 %14, 77
  %or.cond = select i1 %12, i1 %15, i1 false
  br i1 %or.cond, label %49, label %16

16:                                               ; preds = %1
  %17 = icmp eq i8 %11, 35
  %18 = icmp eq i8 %14, 63
  %or.cond7 = select i1 %17, i1 %18, i1 false
  br i1 %or.cond7, label %49, label %19

19:                                               ; preds = %16
  %20 = icmp eq i8 %11, 80
  %21 = and i8 %14, -33
  %or.cond11 = icmp eq i8 %21, 70
  %or.cond26 = select i1 %20, i1 %or.cond11, i1 false
  br i1 %or.cond26, label %49, label %22

22:                                               ; preds = %19
  %23 = icmp eq i8 %14, 54
  %or.cond15 = select i1 %20, i1 %23, i1 false
  br i1 %or.cond15, label %49, label %24

24:                                               ; preds = %22
  %25 = icmp eq i8 %11, -1
  %26 = icmp eq i8 %14, -40
  %or.cond19 = select i1 %25, i1 %26, i1 false
  br i1 %or.cond19, label %49, label %27

27:                                               ; preds = %24
  %28 = call i32 @png_sig_cmp(ptr noundef nonnull %2, i64 noundef 0, i64 noundef 8)
  %29 = icmp eq i32 %28, 0
  br i1 %29, label %49, label %30

30:                                               ; preds = %27
  %31 = call noundef zeroext i1 @_ZN7Imf_2_510isImfMagicEPKc(ptr noundef nonnull %2)
  br i1 %31, label %49, label %32

32:                                               ; preds = %30
  %33 = load ptr, ptr %0, align 8
  %34 = getelementptr inbounds i8, ptr %33, i64 128
  %35 = load ptr, ptr %34, align 8
  %36 = call noundef i64 %35(ptr noundef nonnull align 8 dereferenceable(16) %0)
  %37 = add i64 %36, -18
  %38 = load ptr, ptr %0, align 8
  %39 = getelementptr inbounds i8, ptr %38, i64 104
  %40 = load ptr, ptr %39, align 8
  call void %40(ptr noundef nonnull align 8 dereferenceable(16) %0, i64 noundef %37)
  %41 = load ptr, ptr %0, align 8
  %42 = getelementptr inbounds i8, ptr %41, i64 88
  %43 = load ptr, ptr %42, align 8
  call void %43(ptr noundef nonnull align 8 dereferenceable(16) %0, ptr noundef nonnull %3, i64 noundef 18)
  %44 = getelementptr inbounds i8, ptr %3, i64 17
  %45 = load i8, ptr %44, align 1
  %46 = icmp eq i8 %45, 0
  br i1 %46, label %47, label %49

47:                                               ; preds = %32
  %bcmp = call i32 @bcmp(ptr noundef nonnull dereferenceable(17) %3, ptr noundef nonnull dereferenceable(17) @.str.30, i64 17)
  %48 = icmp eq i32 %bcmp, 0
  %spec.select = select i1 %48, i32 6, i32 8
  br label %49

49:                                               ; preds = %47, %30, %27, %24, %22, %19, %16, %1, %32
  %.0 = phi i32 [ 8, %32 ], [ 7, %1 ], [ 2, %16 ], [ 3, %19 ], [ 4, %22 ], [ 5, %24 ], [ 0, %27 ], [ 1, %30 ], [ %spec.select, %47 ]
  %50 = load ptr, ptr %0, align 8
  %51 = getelementptr inbounds i8, ptr %50, i64 104
  %52 = load ptr, ptr %51, align 8
  call void %52(ptr noundef nonnull align 8 dereferenceable(16) %0, i64 noundef %7)
  ret i32 %.0
}